target datalayout = "e-m:e-p270:32:32-p271:32:32-p272:64:64-i64:64-i128:128-f80:128-n8:16:32:64-S128"
target triple = "x86_64-pc-linux-gnu"

; Function Attrs: nounwind uwtable
define i32 @firstShiftWithOneBit(i64 noundef %0, i32 noundef %1) #0 {
  %3 = alloca i32, align 4
  %4 = alloca i64, align 8
  %5 = alloca i32, align 4
  %6 = alloca i32, align 4
  %7 = alloca i32, align 4
  store i64 %0, ptr %4, align 8, !tbaa !18
  store i32 %1, ptr %5, align 4, !tbaa !8
  call void @llvm.lifetime.start.p0(i64 4, ptr %6) #7
  store i32 0, ptr %6, align 4, !tbaa !8
  %8 = load i32, ptr %5, align 4, !tbaa !8
  %9 = icmp eq i32 %8, 16
  br i1 %9, label %10, label %11

10:                                               ; preds = %2
  store i32 0, ptr %3, align 4
  store i32 1, ptr %7, align 4
  br label %68

11:                                               ; preds = %2
  %12 = load i64, ptr %4, align 8, !tbaa !18
  %13 = icmp uge i64 %12, 4294967296
  br i1 %13, label %14, label %19

14:                                               ; preds = %11
  %15 = load i32, ptr %6, align 4, !tbaa !8
  %16 = add nsw i32 %15, 32
  store i32 %16, ptr %6, align 4, !tbaa !8
  %17 = load i64, ptr %4, align 8, !tbaa !18
  %18 = lshr i64 %17, 32
  store i64 %18, ptr %4, align 8, !tbaa !18
  br label %19

19:                                               ; preds = %14, %11
  %20 = load i32, ptr %5, align 4, !tbaa !8
  %21 = icmp eq i32 %20, 8
  br i1 %21, label %22, label %26

22:                                               ; preds = %19
  %23 = load i32, ptr %6, align 4, !tbaa !8
  %24 = sub nsw i32 64, %23
  %25 = sdiv i32 %24, 32
  store i32 %25, ptr %3, align 4
  store i32 1, ptr %7, align 4
  br label %68

26:                                               ; preds = %19
  %27 = load i64, ptr %4, align 8, !tbaa !18
  %28 = icmp uge i64 %27, 65536
  br i1 %28, label %29, label %34

29:                                               ; preds = %26
  %30 = load i32, ptr %6, align 4, !tbaa !8
  %31 = add nsw i32 %30, 16
  store i32 %31, ptr %6, align 4, !tbaa !8
  %32 = load i64, ptr %4, align 8, !tbaa !18
  %33 = lshr i64 %32, 16
  store i64 %33, ptr %4, align 8, !tbaa !18
  br label %34

34:                                               ; preds = %29, %26
  %35 = load i32, ptr %5, align 4, !tbaa !8
  %36 = icmp eq i32 %35, 4
  br i1 %36, label %37, label %41

37:                                               ; preds = %34
  %38 = load i32, ptr %6, align 4, !tbaa !8
  %39 = sub nsw i32 64, %38
  %40 = sdiv i32 %39, 16
  store i32 %40, ptr %3, align 4
  store i32 1, ptr %7, align 4
  br label %68

41:                                               ; preds = %34
  %42 = load i64, ptr %4, align 8, !tbaa !18
  %43 = icmp uge i64 %42, 256
  br i1 %43, label %44, label %49

44:                                               ; preds = %41
  %45 = load i32, ptr %6, align 4, !tbaa !8
  %46 = add nsw i32 %45, 8
  store i32 %46, ptr %6, align 4, !tbaa !8
  %47 = load i64, ptr %4, align 8, !tbaa !18
  %48 = lshr i64 %47, 8
  store i64 %48, ptr %4, align 8, !tbaa !18
  br label %49

49:                                               ; preds = %44, %41
  %50 = load i32, ptr %5, align 4, !tbaa !8
  %51 = icmp eq i32 %50, 2
  br i1 %51, label %52, label %56

52:                                               ; preds = %49
  %53 = load i32, ptr %6, align 4, !tbaa !8
  %54 = sub nsw i32 64, %53
  %55 = sdiv i32 %54, 8
  store i32 %55, ptr %3, align 4
  store i32 1, ptr %7, align 4
  br label %68

56:                                               ; preds = %49
  %57 = load i64, ptr %4, align 8, !tbaa !18
  %58 = icmp uge i64 %57, 16
  br i1 %58, label %59, label %64

59:                                               ; preds = %56
  %60 = load i32, ptr %6, align 4, !tbaa !8
  %61 = add nsw i32 %60, 4
  store i32 %61, ptr %6, align 4, !tbaa !8
  %62 = load i64, ptr %4, align 8, !tbaa !18
  %63 = lshr i64 %62, 4
  store i64 %63, ptr %4, align 8, !tbaa !18
  br label %64

64:                                               ; preds = %59, %56
  %65 = load i32, ptr %6, align 4, !tbaa !8
  %66 = sub nsw i32 64, %65
  %67 = sdiv i32 %66, 4
  store i32 %67, ptr %3, align 4
  store i32 1, ptr %7, align 4
  br label %68

68:                                               ; preds = %64, %52, %37, %22, %10
  call void @llvm.lifetime.end.p0(i64 4, ptr %6) #7
  %69 = load i32, ptr %3, align 4
  ret i32 %69
}

; Function Attrs: nounwind uwtable
define i32 @minTemp1_fast(ptr noundef %0, i32 noundef %1, i32 noundef %2, ptr noundef %3) #0 {
  %5 = alloca i32, align 4
  %6 = alloca ptr, align 8
  %7 = alloca i32, align 4
  %8 = alloca i32, align 4
  %9 = alloca ptr, align 8
  %10 = alloca i32, align 4
  %11 = alloca i32, align 4
  %12 = alloca i64, align 8
  %13 = alloca i32, align 4
  store ptr %0, ptr %6, align 8, !tbaa !3
  store i32 %1, ptr %7, align 4, !tbaa !8
  store i32 %2, ptr %8, align 4, !tbaa !8
  store ptr %3, ptr %9, align 8, !tbaa !12
  call void @llvm.lifetime.start.p0(i64 4, ptr %10) #7
  call void @llvm.lifetime.start.p0(i64 4, ptr %11) #7
  %14 = load i32, ptr %7, align 4, !tbaa !8
  %15 = shl i32 1, %14
  store i32 %15, ptr %11, align 4, !tbaa !8
  call void @llvm.lifetime.start.p0(i64 8, ptr %12) #7
  %16 = load i32, ptr %8, align 4, !tbaa !8
  %17 = sub nsw i32 %16, 1
  store i32 %17, ptr %10, align 4, !tbaa !8
  br label %18

18:                                               ; preds = %96, %4
  %19 = load i32, ptr %10, align 4, !tbaa !8
  %20 = icmp sge i32 %19, 0
  br i1 %20, label %21, label %99

21:                                               ; preds = %18
  %22 = load ptr, ptr %6, align 8, !tbaa !3
  %23 = load i32, ptr %10, align 4, !tbaa !8
  %24 = sext i32 %23 to i64
  %25 = getelementptr inbounds i64, ptr %22, i64 %24
  %26 = load i64, ptr %25, align 8, !tbaa !18
  %27 = load i32, ptr %7, align 4, !tbaa !8
  %28 = sext i32 %27 to i64
  %29 = getelementptr inbounds [5 x [4 x i64]], ptr @SFmask, i64 0, i64 %28
  %30 = getelementptr inbounds [4 x i64], ptr %29, i64 0, i64 1
  %31 = load i64, ptr %30, align 8, !tbaa !18
  %32 = and i64 %26, %31
  %33 = load i32, ptr %11, align 4, !tbaa !8
  %34 = zext i32 %33 to i64
  %35 = shl i64 %32, %34
  %36 = load ptr, ptr %6, align 8, !tbaa !3
  %37 = load i32, ptr %10, align 4, !tbaa !8
  %38 = sext i32 %37 to i64
  %39 = getelementptr inbounds i64, ptr %36, i64 %38
  %40 = load i64, ptr %39, align 8, !tbaa !18
  %41 = load i32, ptr %7, align 4, !tbaa !8
  %42 = sext i32 %41 to i64
  %43 = getelementptr inbounds [5 x [4 x i64]], ptr @SFmask, i64 0, i64 %42
  %44 = getelementptr inbounds [4 x i64], ptr %43, i64 0, i64 2
  %45 = load i64, ptr %44, align 16, !tbaa !18
  %46 = and i64 %40, %45
  %47 = load i32, ptr %11, align 4, !tbaa !8
  %48 = mul nsw i32 2, %47
  %49 = zext i32 %48 to i64
  %50 = shl i64 %46, %49
  %51 = xor i64 %35, %50
  store i64 %51, ptr %12, align 8, !tbaa !18
  %52 = load i64, ptr %12, align 8, !tbaa !18
  %53 = icmp eq i64 %52, 0
  br i1 %53, label %54, label %55

54:                                               ; preds = %21
  br label %96

55:                                               ; preds = %21
  %56 = load i32, ptr %10, align 4, !tbaa !8
  %57 = mul nsw i32 %56, 100
  %58 = add nsw i32 %57, 20
  %59 = load i64, ptr %12, align 8, !tbaa !18
  %60 = load i32, ptr %11, align 4, !tbaa !8
  %61 = call i32 @firstShiftWithOneBit(i64 noundef %59, i32 noundef %60)
  %62 = sub nsw i32 %58, %61
  %63 = load ptr, ptr %9, align 8, !tbaa !12
  store i32 %62, ptr %63, align 4, !tbaa !8
  %64 = load ptr, ptr %6, align 8, !tbaa !3
  %65 = load i32, ptr %10, align 4, !tbaa !8
  %66 = sext i32 %65 to i64
  %67 = getelementptr inbounds i64, ptr %64, i64 %66
  %68 = load i64, ptr %67, align 8, !tbaa !18
  %69 = load i32, ptr %7, align 4, !tbaa !8
  %70 = sext i32 %69 to i64
  %71 = getelementptr inbounds [5 x [4 x i64]], ptr @SFmask, i64 0, i64 %70
  %72 = getelementptr inbounds [4 x i64], ptr %71, i64 0, i64 1
  %73 = load i64, ptr %72, align 8, !tbaa !18
  %74 = and i64 %68, %73
  %75 = load i32, ptr %11, align 4, !tbaa !8
  %76 = zext i32 %75 to i64
  %77 = shl i64 %74, %76
  %78 = load ptr, ptr %6, align 8, !tbaa !3
  %79 = load i32, ptr %10, align 4, !tbaa !8
  %80 = sext i32 %79 to i64
  %81 = getelementptr inbounds i64, ptr %78, i64 %80
  %82 = load i64, ptr %81, align 8, !tbaa !18
  %83 = load i32, ptr %7, align 4, !tbaa !8
  %84 = sext i32 %83 to i64
  %85 = getelementptr inbounds [5 x [4 x i64]], ptr @SFmask, i64 0, i64 %84
  %86 = getelementptr inbounds [4 x i64], ptr %85, i64 0, i64 2
  %87 = load i64, ptr %86, align 16, !tbaa !18
  %88 = and i64 %82, %87
  %89 = load i32, ptr %11, align 4, !tbaa !8
  %90 = mul nsw i32 2, %89
  %91 = zext i32 %90 to i64
  %92 = shl i64 %88, %91
  %93 = icmp ult i64 %77, %92
  br i1 %93, label %94, label %95

94:                                               ; preds = %55
  store i32 1, ptr %5, align 4
  store i32 1, ptr %13, align 4
  br label %101

95:                                               ; preds = %55
  store i32 2, ptr %5, align 4
  store i32 1, ptr %13, align 4
  br label %101

96:                                               ; preds = %54
  %97 = load i32, ptr %10, align 4, !tbaa !8
  %98 = add nsw i32 %97, -1
  store i32 %98, ptr %10, align 4, !tbaa !8
  br label %18, !llvm.loop !22

99:                                               ; preds = %18
  %100 = load ptr, ptr %9, align 8, !tbaa !12
  store i32 0, ptr %100, align 4, !tbaa !8
  store i32 1, ptr %5, align 4
  store i32 1, ptr %13, align 4
  br label %101

101:                                              ; preds = %99, %95, %94
  call void @llvm.lifetime.end.p0(i64 8, ptr %12) #7
  call void @llvm.lifetime.end.p0(i64 4, ptr %11) #7
  call void @llvm.lifetime.end.p0(i64 4, ptr %10) #7
  %102 = load i32, ptr %5, align 4
  ret i32 %102
}