; Function Attrs: nofree norecurse nosync nounwind memory(argmem: readwrite) uwtable
define range(i32 1, 3) i32 @minTemp1_fast(ptr noundef readonly captures(none) %0, i32 noundef %1, i32 noundef %2, ptr noundef writeonly captures(none) %3) local_unnamed_addr #5 {
  %5 = shl nuw i32 1, %1
  %6 = sext i32 %1 to i64
  %7 = getelementptr inbounds [5 x [4 x i64]], ptr @SFmask, i64 0, i64 %6
  %8 = getelementptr inbounds nuw i8, ptr %7, i64 8
  %9 = zext nneg i32 %5 to i64
  %10 = getelementptr inbounds nuw i8, ptr %7, i64 16
  %11 = shl i32 2, %1
  %12 = zext nneg i32 %11 to i64
  %13 = zext i32 %2 to i64
  br label %14

14:                                               ; preds = %17, %4
  %indvars.iv = phi i64 [ %18, %17 ], [ %13, %4 ]
  %15 = trunc nuw i64 %indvars.iv to i32
  %16 = icmp sgt i32 %15, 0
  br i1 %16, label %17, label %60

17:                                               ; preds = %14
  %18 = add nsw i64 %indvars.iv, -1
  %19 = getelementptr inbounds nuw i64, ptr %0, i64 %18
  %20 = load i64, ptr %19, align 8, !tbaa !11
  %21 = load i64, ptr %8, align 8, !tbaa !11
  %22 = and i64 %21, %20
  %23 = shl i64 %22, %9
  %24 = load i64, ptr %10, align 16, !tbaa !11
  %25 = and i64 %24, %20
  %26 = shl i64 %25, %12
  %27 = icmp eq i64 %23, %26
  br i1 %27, label %14, label %28, !llvm.loop !15

28:                                               ; preds = %17
  %29 = trunc i64 %18 to i32
  %30 = xor i64 %26, %23
  %31 = mul nsw i32 %29, 100
  %32 = add nuw nsw i32 %31, 20
  %33 = icmp eq i32 %1, 4
  br i1 %33, label %firstShiftWithOneBit.exit, label %34

34:                                               ; preds = %28
  %35 = icmp ugt i64 %30, 4294967295
  %spec.select28.i = select i1 %35, i32 32, i32 0
  %36 = icmp eq i32 %1, 3
  br i1 %36, label %37, label %40

37:                                               ; preds = %34
  %38 = sub nuw nsw i32 64, %spec.select28.i
  %39 = lshr exact i32 %38, 5
  br label %firstShiftWithOneBit.exit

40:                                               ; preds = %34
  %41 = lshr i64 %30, 32
  %spec.select.i = select i1 %35, i64 %41, i64 %30
  %42 = icmp samesign ugt i64 %spec.select.i, 65535
  %43 = or disjoint i32 %spec.select28.i, 16
  %.1.i = select i1 %42, i32 %43, i32 %spec.select28.i
  %44 = icmp eq i32 %1, 2
  br i1 %44, label %45, label %46

45:                                               ; preds = %40
  %.lhs.trunc.i = sub nuw nsw i32 64, %.1.i
  %.zext.i = lshr exact i32 %.lhs.trunc.i, 4
  br label %firstShiftWithOneBit.exit

46:                                               ; preds = %40
  %47 = lshr i64 %spec.select.i, 16
  %.123.i = select i1 %42, i64 %47, i64 %spec.select.i
  %48 = icmp samesign ugt i64 %.123.i, 255
  %49 = or disjoint i32 %.1.i, 8
  %.2.i = select i1 %48, i32 %49, i32 %.1.i
  %50 = icmp eq i32 %1, 1
  br i1 %50, label %51, label %53

51:                                               ; preds = %46
  %.lhs.trunc30.i = sub nuw nsw i32 64, %.2.i
  %52 = lshr exact i32 %.lhs.trunc30.i, 3
  br label %firstShiftWithOneBit.exit

53:                                               ; preds = %46
  %54 = lshr i64 %.123.i, 8
  %.224.i = select i1 %48, i64 %54, i64 %.123.i
  %55 = icmp samesign ugt i64 %.224.i, 15
  %56 = or disjoint i32 %.2.i, 4
  %spec.select29.i = select i1 %55, i32 %56, i32 %.2.i
  %.lhs.trunc32.i = sub nuw nsw i32 64, %spec.select29.i
  %57 = lshr i32 %.lhs.trunc32.i, 2
  br label %firstShiftWithOneBit.exit

firstShiftWithOneBit.exit:                        ; preds = %28, %37, %45, %51, %53
  %.021.i = phi i32 [ %39, %37 ], [ %.zext.i, %45 ], [ %52, %51 ], [ %57, %53 ], [ 0, %28 ]
  %58 = sub nuw i32 %32, %.021.i
  store i32 %58, ptr %3, align 4, !tbaa !6
  %59 = icmp ult i64 %23, %26
  %. = select i1 %59, i32 1, i32 2
  br label %61

60:                                               ; preds = %14
  store i32 0, ptr %3, align 4, !tbaa !6
  br label %61

61:                                               ; preds = %firstShiftWithOneBit.exit, %60
  %.0 = phi i32 [ 1, %60 ], [ %., %firstShiftWithOneBit.exit ]
  ret i32 %.0
}